; Function Attrs: mustprogress uwtable
define hidden noundef i64 @_ZNK6google8protobuf28UninterpretedOption_NamePart12ByteSizeLongEv(ptr noundef nonnull align 8 dereferenceable(40) %0) unnamed_addr #3 align 2 {
  %2 = getelementptr inbounds nuw i8, ptr %0, i64 16
  %3 = load i32, ptr %2, align 8, !tbaa !58
  %4 = and i32 %3, 3
  %5 = icmp eq i32 %4, 3
  br i1 %5, label %6, label %24

6:                                                ; preds = %1
  %7 = getelementptr inbounds nuw i8, ptr %0, i64 24
  %8 = load ptr, ptr %7, align 8, !tbaa !84
  %9 = ptrtoint ptr %8 to i64
  %10 = and i64 %9, -2
  %11 = inttoptr i64 %10 to ptr
  %12 = getelementptr inbounds nuw i8, ptr %11, i64 8
  %13 = load i64, ptr %12, align 8, !tbaa !85
  %14 = trunc i64 %13 to i32
  %15 = or i32 %14, 1
  %16 = tail call range(i32 0, 33) i32 @llvm.ctlz.i32(i32 %15, i1 true)
  %17 = xor i32 %16, 31
  %18 = mul nuw nsw i32 %17, 9
  %19 = add nuw nsw i32 %18, 73
  %20 = lshr i32 %19, 6
  %21 = zext nneg i32 %20 to i64
  %22 = add i64 %13, 3
  %23 = add i64 %22, %21
  br label %46

24:                                               ; preds = %1
  %25 = and i32 %3, 1
  %.not.i = icmp eq i32 %25, 0
  br i1 %.not.i, label %_ZNK6google8protobuf28UninterpretedOption_NamePart30RequiredFieldsByteSizeFallbackEv.exit, label %26

26:                                               ; preds = %24
  %27 = getelementptr inbounds nuw i8, ptr %0, i64 24
  %28 = load ptr, ptr %27, align 8, !tbaa !84
  %29 = ptrtoint ptr %28 to i64
  %30 = and i64 %29, -2
  %31 = inttoptr i64 %30 to ptr
  %32 = getelementptr inbounds nuw i8, ptr %31, i64 8
  %33 = load i64, ptr %32, align 8, !tbaa !85
  %34 = trunc i64 %33 to i32
  %35 = or i32 %34, 1
  %36 = tail call range(i32 0, 33) i32 @llvm.ctlz.i32(i32 %35, i1 true)
  %37 = xor i32 %36, 31
  %38 = mul nuw nsw i32 %37, 9
  %39 = add nuw nsw i32 %38, 73
  %40 = lshr i32 %39, 6
  %41 = zext nneg i32 %40 to i64
  %42 = add i64 %33, 1
  %43 = add i64 %42, %41
  br label %_ZNK6google8protobuf28UninterpretedOption_NamePart30RequiredFieldsByteSizeFallbackEv.exit

_ZNK6google8protobuf28UninterpretedOption_NamePart30RequiredFieldsByteSizeFallbackEv.exit: ; preds = %24, %26
  %.0.i = phi i64 [ %43, %26 ], [ 0, %24 ]
  %44 = and i32 %3, 2
  %45 = zext nneg i32 %44 to i64
  %spec.select.i = add i64 %.0.i, %45
  br label %46

46:                                               ; preds = %_ZNK6google8protobuf28UninterpretedOption_NamePart30RequiredFieldsByteSizeFallbackEv.exit, %6
  %.0 = phi i64 [ %23, %6 ], [ %spec.select.i, %_ZNK6google8protobuf28UninterpretedOption_NamePart30RequiredFieldsByteSizeFallbackEv.exit ]
  %47 = getelementptr inbounds nuw i8, ptr %0, i64 20
  %48 = tail call noundef i64 @_ZNK6google8protobuf7Message29MaybeComputeUnknownFieldsSizeEmPNS0_8internal10CachedSizeE(ptr noundef nonnull align 8 dereferenceable(16) %0, i64 noundef %.0, ptr noundef nonnull %47)
  ret i64 %48
}